target datalayout = "e-m:e-p270:32:32-p271:32:32-p272:64:64-i64:64-i128:128-f80:128-n8:16:32:64-S128"
target triple = "x86_64-pc-linux-gnu"

%"class.std::__1::strstreambuf" = type { %"class.std::__1::basic_streambuf", i32, i64, ptr, ptr }
%"class.std::__1::basic_streambuf" = type { ptr, %"class.std::__1::locale", ptr, ptr, ptr, ptr, ptr, ptr }
%"class.std::__1::locale" = type { ptr }
%"class.std::__1::basic_ios.base" = type <{ %"class.std::__1::ios_base", ptr, %"struct.std::__1::_SentinelValueFill" }>
%"class.std::__1::ios_base" = type { ptr, i32, i64, i64, i32, i32, ptr, ptr, ptr, ptr, i64, i64, ptr, i64, i64, ptr, i64, i64 }
%"struct.std::__1::_SentinelValueFill" = type { i32 }
%"class.std::__1::ostrstream" = type { %"class.std::__1::basic_ostream.base", %"class.std::__1::strstreambuf", %"class.std::__1::basic_ios.base" }
%"class.std::__1::basic_ostream.base" = type { ptr }

@_ZNSt3__112strstreambufD1Ev = dso_local unnamed_addr alias void (ptr), ptr @_ZNSt3__112strstreambufD2Ev

; Function Attrs: mustprogress nounwind uwtable
define dso_local void @_ZNSt3__110ostrstreamD2Ev(ptr noundef nonnull align 8 dereferenceable(104) %0, ptr noundef %1) unnamed_addr #1 align 2 {
  %3 = alloca ptr, align 8
  %4 = alloca ptr, align 8
  store ptr %0, ptr %3, align 8, !tbaa !58
  store ptr %1, ptr %4, align 8, !tbaa !38
  %5 = load ptr, ptr %3, align 8
  %6 = load ptr, ptr %4, align 8
  %7 = load ptr, ptr %6, align 8
  store ptr %7, ptr %5, align 8, !tbaa !11
  %8 = getelementptr inbounds ptr, ptr %6, i64 3
  %9 = load ptr, ptr %8, align 8
  %10 = load ptr, ptr %5, align 8, !tbaa !11
  %11 = getelementptr i8, ptr %10, i64 -24
  %12 = load i64, ptr %11, align 8
  %13 = getelementptr inbounds i8, ptr %5, i64 %12
  store ptr %9, ptr %13, align 8, !tbaa !11
  %14 = getelementptr inbounds nuw %"class.std::__1::ostrstream", ptr %5, i32 0, i32 1
  call void @_ZNSt3__112strstreambufD1Ev(ptr noundef nonnull align 8 dereferenceable(96) %14) #14
  %15 = getelementptr inbounds ptr, ptr %6, i64 1
  call void @_ZNSt3__113basic_ostreamIcNS_11char_traitsIcEEED2Ev(ptr noundef nonnull align 8 dereferenceable(8) %5, ptr noundef %15) #14
  ret void
}

; Function Attrs: mustprogress nounwind uwtable
define dso_local void @_ZNSt3__110ostrstreamD1Ev(ptr noundef nonnull align 8 dereferenceable(104) %0) unnamed_addr #1 align 2 {
  %2 = alloca ptr, align 8
  store ptr %0, ptr %2, align 8, !tbaa !58
  %3 = load ptr, ptr %2, align 8
  call void @_ZNSt3__110ostrstreamD2Ev(ptr noundef nonnull align 8 dereferenceable(104) %3, ptr noundef @_ZTTNSt3__110ostrstreamE) #14
  %4 = getelementptr inbounds i8, ptr %3, i64 104
  call void @_ZNSt3__19basic_iosIcNS_11char_traitsIcEEED2Ev(ptr noundef nonnull align 8 dereferenceable(148) %4) #14
  ret void
}

; Function Attrs: mustprogress nounwind uwtable
define dso_local void @_ZNSt3__110ostrstreamD0Ev(ptr noundef nonnull align 8 dereferenceable(104) %0) unnamed_addr #1 align 2 {
  %2 = alloca ptr, align 8
  store ptr %0, ptr %2, align 8, !tbaa !58
  %3 = load ptr, ptr %2, align 8
  call void @_ZNSt3__110ostrstreamD1Ev(ptr noundef nonnull align 8 dereferenceable(104) %3) #14
  call void @_ZdlPvm(ptr noundef %3, i64 noundef 256) #16
  ret void
}